(dp0
S' '
p1
I0
sS'$'
p2
I82
sS'('
p3
I80
sS','
p4
I48
sS'0'
p5
I67
sS'4'
p6
I63
sS'8'
p7
I72
sS'@'
p8
I78
sS'D'
p9
I36
sS'H'
p10
I52
sS'L'
p11
I37
sS'P'
p12
I49
sS'T'
p13
I21
sS'X'
p14
I69
sS'\\'
p15
I85
sS'`'
p16
I31
sS'd'
p17
I11
sS'h'
p18
I9
sS'l'
p19
I10
sS'p'
p20
I27
sS't'
p21
I16
sS'x'
p22
I28
sS'|'
p23
I84
sS"'"
p24
I23
sS'+'
p25
I83
sS'/'
p26
I58
sS'3'
p27
I65
sS'7'
p28
I76
sS';'
p29
I46
sS'?'
p30
I54
sS'C'
p31
I64
sS'G'
p32
I60
sS'K'
p33
I47
sS'O'
p34
I33
sS'S'
p35
I53
sS'W'
p36
I8
sS'['
p37
I50
sS'_'
p38
I79
sS'c'
p39
I25
sS'g'
p40
I2
sS'k'
p41
I14
sS'o'
p42
I6
sS's'
p43
I5
sS'w'
p44
I29
sS'{'
p45
I89
sS'\x7f'
p46
I92
sS'&'
p47
I44
sS'*'
p48
I70
sS'.'
p49
I7
sS'2'
p50
I61
sS'6'
p51
I77
sS':'
p52
I71
sS'B'
p53
I32
sS'F'
p54
I55
sS'J'
p55
I59
sS'N'
p56
I41
sS'R'
p57
I34
sS'V'
p58
I38
sS'Z'
p59
I73
sS'^'
p60
I87
sS'b'
p61
I26
sS'f'
p62
I17
sS'j'
p63
I24
sS'n'
p64
I22
sS'r'
p65
I19
sS'v'
p66
I42
sS'z'
p67
I56
sS'~'
p68
I74
sS'\t'
p69
I91
sS'!'
p70
I20
sS'%'
p71
I88
sS')'
p72
I68
sS'-'
p73
I43
sS'1'
p74
I66
sS'5'
p75
I62
sS'9'
p76
I75
sS'='
p77
I81
sS'A'
p78
I40
sS'E'
p79
I35
sS'I'
p80
I1
sS'M'
p81
I57
sS'Q'
p82
I86
sS'U'
p83
I39
sS'Y'
p84
I30
sS']'
p85
I51
sS'a'
p86
I13
sS'e'
p87
I4
sS'i'
p88
I15
sS'm'
p89
I12
sS'q'
p90
I45
sS'u'
p91
I3
sS'y'
p92
I18
sS'}'
p93
I90
s.